; ModuleID = '51/312.c'
source_filename = "51/312.c"
target datalayout = "e-m:e-p270:32:32-p271:32:32-p272:64:64-i64:64-f80:128-n8:16:32:64-S128"
target triple = "x86_64-pc-linux-gnu"

@.str = private unnamed_addr constant [4 x i8] c"%d\0A\00", align 1
@.str.1 = private unnamed_addr constant [3 x i8] c"NO\00", align 1
@.str.2 = private unnamed_addr constant [3 x i8] c"%d\00", align 1
@.str.3 = private unnamed_addr constant [4 x i8] c"\0A%s\00", align 1

; Function Attrs: noinline nounwind uwtable
define dso_local i32 @main() #0 {
  %1 = alloca i32, align 4
  %2 = alloca [501 x i8], align 16
  %3 = alloca [500 x [5 x i8]], align 16
  %4 = alloca i32, align 4
  %5 = alloca i32, align 4
  %6 = alloca i32, align 4
  %7 = alloca i32, align 4
  %8 = alloca i32, align 4
  %9 = alloca [500 x i32], align 16
  %10 = alloca [500 x i32], align 16
  %11 = alloca i32, align 4
  store i32 0, i32* %1, align 4
  store i32 0, i32* %6, align 4
  %12 = bitcast [500 x i32]* %9 to i8*
  call void @llvm.memset.p0i8.i64(i8* align 16 %12, i8 0, i64 2000, i1 false)
  %13 = bitcast [500 x i32]* %10 to i8*
  call void @llvm.memset.p0i8.i64(i8* align 16 %13, i8 0, i64 2000, i1 false)
  store i32 1, i32* %11, align 4
  %14 = call i32 (i8*, ...) @__isoc99_scanf(i8* getelementptr inbounds ([4 x i8], [4 x i8]* @.str, i64 0, i64 0), i32* %7)
  %15 = getelementptr inbounds [501 x i8], [501 x i8]* %2, i64 0, i64 0
  %16 = call i32 (i8*, ...) bitcast (i32 (...)* @gets to i32 (i8*, ...)*)(i8* %15)
  %17 = getelementptr inbounds [501 x i8], [501 x i8]* %2, i64 0, i64 0
  %18 = call i64 @strlen(i8* %17) #4
  %19 = trunc i64 %18 to i32
  store i32 %19, i32* %5, align 4
  store i32 0, i32* %4, align 4
  br label %20

20:                                               ; preds = %55, %0
  %21 = load i32, i32* %4, align 4
  %22 = load i32, i32* %5, align 4
  %23 = load i32, i32* %7, align 4
  %24 = sub nsw i32 %22, %23
  %25 = add nsw i32 %24, 1
  %26 = icmp slt i32 %21, %25
  br i1 %26, label %27, label %58

27:                                               ; preds = %20
  store i32 0, i32* %8, align 4
  br label %28

28:                                               ; preds = %45, %27
  %29 = load i32, i32* %8, align 4
  %30 = load i32, i32* %7, align 4
  %31 = icmp slt i32 %29, %30
  br i1 %31, label %32, label %48

32:                                               ; preds = %28
  %33 = load i32, i32* %4, align 4
  %34 = load i32, i32* %8, align 4
  %35 = add nsw i32 %33, %34
  %36 = sext i32 %35 to i64
  %37 = getelementptr inbounds [501 x i8], [501 x i8]* %2, i64 0, i64 %36
  %38 = load i8, i8* %37, align 1
  %39 = load i32, i32* %4, align 4
  %40 = sext i32 %39 to i64
  %41 = getelementptr inbounds [500 x [5 x i8]], [500 x [5 x i8]]* %3, i64 0, i64 %40
  %42 = load i32, i32* %8, align 4
  %43 = sext i32 %42 to i64
  %44 = getelementptr inbounds [5 x i8], [5 x i8]* %41, i64 0, i64 %43
  store i8 %38, i8* %44, align 1
  br label %45

45:                                               ; preds = %32
  %46 = load i32, i32* %8, align 4
  %47 = add nsw i32 %46, 1
  store i32 %47, i32* %8, align 4
  br label %28

48:                                               ; preds = %28
  %49 = load i32, i32* %4, align 4
  %50 = sext i32 %49 to i64
  %51 = getelementptr inbounds [500 x [5 x i8]], [500 x [5 x i8]]* %3, i64 0, i64 %50
  %52 = load i32, i32* %8, align 4
  %53 = sext i32 %52 to i64
  %54 = getelementptr inbounds [5 x i8], [5 x i8]* %51, i64 0, i64 %53
  store i8 0, i8* %54, align 1
  br label %55

55:                                               ; preds = %48
  %56 = load i32, i32* %4, align 4
  %57 = add nsw i32 %56, 1
  store i32 %57, i32* %4, align 4
  br label %20

58:                                               ; preds = %20
  store i32 0, i32* %4, align 4
  br label %59

59:                                               ; preds = %101, %58
  %60 = load i32, i32* %4, align 4
  %61 = load i32, i32* %5, align 4
  %62 = load i32, i32* %7, align 4
  %63 = sub nsw i32 %61, %62
  %64 = add nsw i32 %63, 1
  %65 = icmp slt i32 %60, %64
  br i1 %65, label %66, label %104

66:                                               ; preds = %59
  %67 = load i32, i32* %4, align 4
  %68 = sext i32 %67 to i64
  %69 = getelementptr inbounds [500 x i32], [500 x i32]* %9, i64 0, i64 %68
  store i32 1, i32* %69, align 4
  %70 = load i32, i32* %4, align 4
  %71 = add nsw i32 %70, 1
  store i32 %71, i32* %8, align 4
  br label %72

72:                                               ; preds = %97, %66
  %73 = load i32, i32* %8, align 4
  %74 = load i32, i32* %5, align 4
  %75 = load i32, i32* %7, align 4
  %76 = sub nsw i32 %74, %75
  %77 = add nsw i32 %76, 1
  %78 = icmp slt i32 %73, %77
  br i1 %78, label %79, label %100

79:                                               ; preds = %72
  %80 = load i32, i32* %4, align 4
  %81 = sext i32 %80 to i64
  %82 = getelementptr inbounds [500 x [5 x i8]], [500 x [5 x i8]]* %3, i64 0, i64 %81
  %83 = getelementptr inbounds [5 x i8], [5 x i8]* %82, i64 0, i64 0
  %84 = load i32, i32* %8, align 4
  %85 = sext i32 %84 to i64
  %86 = getelementptr inbounds [500 x [5 x i8]], [500 x [5 x i8]]* %3, i64 0, i64 %85
  %87 = getelementptr inbounds [5 x i8], [5 x i8]* %86, i64 0, i64 0
  %88 = call i32 @strcmp(i8* %83, i8* %87) #4
  %89 = icmp eq i32 %88, 0
  br i1 %89, label %90, label %96

90:                                               ; preds = %79
  %91 = load i32, i32* %4, align 4
  %92 = sext i32 %91 to i64
  %93 = getelementptr inbounds [500 x i32], [500 x i32]* %9, i64 0, i64 %92
  %94 = load i32, i32* %93, align 4
  %95 = add nsw i32 %94, 1
  store i32 %95, i32* %93, align 4
  br label %96

96:                                               ; preds = %90, %79
  br label %97

97:                                               ; preds = %96
  %98 = load i32, i32* %8, align 4
  %99 = add nsw i32 %98, 1
  store i32 %99, i32* %8, align 4
  br label %72

100:                                              ; preds = %72
  br label %101

101:                                              ; preds = %100
  %102 = load i32, i32* %4, align 4
  %103 = add nsw i32 %102, 1
  store i32 %103, i32* %4, align 4
  br label %59

104:                                              ; preds = %59
  store i32 0, i32* %4, align 4
  br label %105

105:                                              ; preds = %149, %104
  %106 = load i32, i32* %4, align 4
  %107 = load i32, i32* %5, align 4
  %108 = load i32, i32* %7, align 4
  %109 = sub nsw i32 %107, %108
  %110 = add nsw i32 %109, 1
  %111 = icmp slt i32 %106, %110
  br i1 %111, label %112, label %152

112:                                              ; preds = %105
  %113 = load i32, i32* %4, align 4
  %114 = sext i32 %113 to i64
  %115 = getelementptr inbounds [500 x i32], [500 x i32]* %9, i64 0, i64 %114
  %116 = load i32, i32* %115, align 4
  %117 = load i32, i32* %11, align 4
  %118 = icmp eq i32 %116, %117
  br i1 %118, label %119, label %129

119:                                              ; preds = %112
  %120 = load i32, i32* %11, align 4
  %121 = icmp ne i32 %120, 1
  br i1 %121, label %122, label %129

122:                                              ; preds = %119
  %123 = load i32, i32* %4, align 4
  %124 = load i32, i32* %6, align 4
  %125 = sext i32 %124 to i64
  %126 = getelementptr inbounds [500 x i32], [500 x i32]* %10, i64 0, i64 %125
  store i32 %123, i32* %126, align 4
  %127 = load i32, i32* %6, align 4
  %128 = add nsw i32 %127, 1
  store i32 %128, i32* %6, align 4
  br label %148

129:                                              ; preds = %119, %112
  %130 = load i32, i32* %4, align 4
  %131 = sext i32 %130 to i64
  %132 = getelementptr inbounds [500 x i32], [500 x i32]* %9, i64 0, i64 %131
  %133 = load i32, i32* %132, align 4
  %134 = load i32, i32* %11, align 4
  %135 = icmp sgt i32 %133, %134
  br i1 %135, label %136, label %147

136:                                              ; preds = %129
  %137 = load i32, i32* %4, align 4
  %138 = sext i32 %137 to i64
  %139 = getelementptr inbounds [500 x i32], [500 x i32]* %9, i64 0, i64 %138
  %140 = load i32, i32* %139, align 4
  store i32 %140, i32* %11, align 4
  store i32 0, i32* %6, align 4
  %141 = load i32, i32* %4, align 4
  %142 = load i32, i32* %6, align 4
  %143 = sext i32 %142 to i64
  %144 = getelementptr inbounds [500 x i32], [500 x i32]* %10, i64 0, i64 %143
  store i32 %141, i32* %144, align 4
  %145 = load i32, i32* %6, align 4
  %146 = add nsw i32 %145, 1
  store i32 %146, i32* %6, align 4
  br label %147

147:                                              ; preds = %136, %129
  br label %148

148:                                              ; preds = %147, %122
  br label %149

149:                                              ; preds = %148
  %150 = load i32, i32* %4, align 4
  %151 = add nsw i32 %150, 1
  store i32 %151, i32* %4, align 4
  br label %105

152:                                              ; preds = %105
  %153 = load i32, i32* %11, align 4
  %154 = icmp eq i32 %153, 1
  br i1 %154, label %155, label %157

155:                                              ; preds = %152
  %156 = call i32 (i8*, ...) @printf(i8* getelementptr inbounds ([3 x i8], [3 x i8]* @.str.1, i64 0, i64 0))
  br label %177

157:                                              ; preds = %152
  %158 = load i32, i32* %11, align 4
  %159 = call i32 (i8*, ...) @printf(i8* getelementptr inbounds ([3 x i8], [3 x i8]* @.str.2, i64 0, i64 0), i32 %158)
  store i32 0, i32* %4, align 4
  br label %160

160:                                              ; preds = %173, %157
  %161 = load i32, i32* %4, align 4
  %162 = load i32, i32* %6, align 4
  %163 = icmp slt i32 %161, %162
  br i1 %163, label %164, label %176

164:                                              ; preds = %160
  %165 = load i32, i32* %4, align 4
  %166 = sext i32 %165 to i64
  %167 = getelementptr inbounds [500 x i32], [500 x i32]* %10, i64 0, i64 %166
  %168 = load i32, i32* %167, align 4
  %169 = sext i32 %168 to i64
  %170 = getelementptr inbounds [500 x [5 x i8]], [500 x [5 x i8]]* %3, i64 0, i64 %169
  %171 = getelementptr inbounds [5 x i8], [5 x i8]* %170, i64 0, i64 0
  %172 = call i32 (i8*, ...) @printf(i8* getelementptr inbounds ([4 x i8], [4 x i8]* @.str.3, i64 0, i64 0), i8* %171)
  br label %173

173:                                              ; preds = %164
  %174 = load i32, i32* %4, align 4
  %175 = add nsw i32 %174, 1
  store i32 %175, i32* %4, align 4
  br label %160

176:                                              ; preds = %160
  br label %177

177:                                              ; preds = %176, %155
  ret i32 0
}

; Function Attrs: argmemonly nounwind willreturn
declare void @llvm.memset.p0i8.i64(i8* nocapture writeonly, i8, i64, i1 immarg) #1

declare dso_local i32 @__isoc99_scanf(i8*, ...) #2

declare dso_local i32 @gets(...) #2

; Function Attrs: nounwind readonly
declare dso_local i64 @strlen(i8*) #3

; Function Attrs: nounwind readonly
declare dso_local i32 @strcmp(i8*, i8*) #3

declare dso_local i32 @printf(i8*, ...) #2


!llvm.module.flags = !{!0}
!llvm.ident = !{!1}

!0 = !{i32 1, !"wchar_size", i32 4}
!1 = !{!"clang version 10.0.0-4ubuntu1 "}
